target datalayout = "e-m:e-p270:32:32-p271:32:32-p272:64:64-i64:64-i128:128-f80:128-n8:16:32:64-S128"
target triple = "x86_64-pc-linux-gnu"

%"class.std::_Function_base" = type { %"union.std::_Any_data", ptr }
%"union.std::_Any_data" = type { %"union.std::_Nocopy_types" }
%"union.std::_Nocopy_types" = type { { i64, i64 } }
%"class.std::basic_string_view" = type { i64, ptr }
%"struct.nix::Sink" = type { ptr }
%"class.std::shared_ptr.34" = type { %"class.std::__shared_ptr.35" }
%"class.std::__shared_ptr.35" = type { ptr, %"class.std::__shared_count" }
%"class.std::__shared_count" = type { ptr }
%"class.std::function" = type { %"class.std::_Function_base", ptr }
%struct.SourceToSink = type { %"struct.nix::FinishSink", %"class.std::function", %"class.std::optional.103", %"class.std::basic_string_view" }
%"struct.nix::FinishSink" = type { %"struct.nix::Sink" }
%"class.std::optional.103" = type { %"struct.std::_Optional_base.104" }
%"struct.std::_Optional_base.104" = type { %"struct.std::_Optional_payload.106" }
%"struct.std::_Optional_payload.106" = type { %"struct.std::_Optional_payload.base.110", [7 x i8] }
%"struct.std::_Optional_payload.base.110" = type { %"struct.std::_Optional_payload_base.base.109" }
%"struct.std::_Optional_payload_base.base.109" = type <{ %"union.std::_Optional_payload_base<boost::coroutines2::detail::push_coroutine<bool>>::_Storage", i8 }>
%"union.std::_Optional_payload_base<boost::coroutines2::detail::push_coroutine<bool>>::_Storage" = type { %"class.boost::coroutines2::detail::push_coroutine" }
%"class.boost::coroutines2::detail::push_coroutine" = type { ptr }
%"class.nix::CoroutineContext" = type { %"class.std::shared_ptr.34" }
%"struct.std::_Optional_payload_base.108" = type <{ %"union.std::_Optional_payload_base<boost::coroutines2::detail::push_coroutine<bool>>::_Storage", i8, [7 x i8] }>
%"struct.boost::coroutines2::detail::push_coroutine<bool>::control_block" = type { %"class.boost::context::fiber", ptr, i32, %"class.std::__exception_ptr::exception_ptr" }
%"class.boost::context::fiber" = type { ptr }
%"class.std::__exception_ptr::exception_ptr" = type { ptr }

@_ZN3nix19create_coro_gc_hookE = global ptr @"_ZN3nix3$_18__invokeEv", align 8

; Function Attrs: mustprogress nounwind uwtable
define linkonce_odr noundef i32 @_ZN5boost11coroutines26detailanENS1_7state_tES2_(i32 noundef %0, i32 noundef %1) #2 comdat {
  %3 = alloca i32, align 4
  %4 = alloca i32, align 4
  store i32 %0, ptr %3, align 4
  store i32 %1, ptr %4, align 4
  %5 = load i32, ptr %3, align 4
  %6 = load i32, ptr %4, align 4
  %7 = and i32 %5, %6
  ret i32 %7
}

; Function Attrs: mustprogress nounwind uwtable
define linkonce_odr noundef nonnull align 8 dereferenceable(8) ptr @_ZNSt22_Optional_payload_baseIN5boost11coroutines26detail14push_coroutineIbEEE6_M_getEv(ptr noundef nonnull align 8 dereferenceable(9) %0) #2 comdat align 2 {
  %2 = alloca ptr, align 8
  store ptr %0, ptr %2, align 8
  %3 = load ptr, ptr %2, align 8
  %4 = getelementptr inbounds %"struct.std::_Optional_payload_base.108", ptr %3, i32 0, i32 0
  ret ptr %4
}

; Function Attrs: mustprogress nounwind uwtable
define linkonce_odr noundef zeroext i1 @_ZNK5boost11coroutines26detail14push_coroutineIbE13control_block5validEv(ptr noundef nonnull align 8 dereferenceable(32) %0) #2 comdat align 2 {
  %2 = alloca ptr, align 8
  store ptr %0, ptr %2, align 8
  %3 = load ptr, ptr %2, align 8
  %4 = getelementptr inbounds %"struct.boost::coroutines2::detail::push_coroutine<bool>::control_block", ptr %3, i32 0, i32 2
  %5 = load i32, ptr %4, align 8
  %6 = call noundef i32 @_ZN5boost11coroutines26detailanENS1_7state_tES2_(i32 noundef %5, i32 noundef 2)
  %7 = icmp eq i32 0, %6
  ret i1 %7
}

; Function Attrs: mustprogress nounwind uwtable
define linkonce_odr noundef nonnull align 8 dereferenceable(8) ptr @_ZNSt19_Optional_base_implIN5boost11coroutines26detail14push_coroutineIbEESt14_Optional_baseIS4_Lb0ELb0EEE6_M_getEv(ptr noundef nonnull align 1 dereferenceable(1) %0) #2 comdat align 2 {
  %2 = alloca ptr, align 8
  store ptr %0, ptr %2, align 8
  %3 = load ptr, ptr %2, align 8
  br label %4

4:                                                ; preds = %1
  br label %5

5:                                                ; preds = %4
  br label %6

6:                                                ; preds = %5
  %7 = getelementptr inbounds %"struct.std::_Optional_base.104", ptr %3, i32 0, i32 0
  %8 = call noundef nonnull align 8 dereferenceable(8) ptr @_ZNSt22_Optional_payload_baseIN5boost11coroutines26detail14push_coroutineIbEEE6_M_getEv(ptr noundef nonnull align 8 dereferenceable(9) %7) #1
  ret ptr %8
}

; Function Attrs: mustprogress nounwind uwtable
define linkonce_odr noundef zeroext i1 @_ZNKSt19_Optional_base_implIN5boost11coroutines26detail14push_coroutineIbEESt14_Optional_baseIS4_Lb0ELb0EEE13_M_is_engagedEv(ptr noundef nonnull align 1 dereferenceable(1) %0) #2 comdat align 2 {
  %2 = alloca ptr, align 8
  store ptr %0, ptr %2, align 8
  %3 = load ptr, ptr %2, align 8
  %4 = getelementptr inbounds %"struct.std::_Optional_base.104", ptr %3, i32 0, i32 0
  %5 = getelementptr inbounds %"struct.std::_Optional_payload_base.108", ptr %4, i32 0, i32 1
  %6 = load i8, ptr %5, align 8
  %7 = trunc i8 %6 to i1
  ret i1 %7
}

; Function Attrs: mustprogress nounwind uwtable
define linkonce_odr noundef zeroext i1 @_ZNK5boost11coroutines26detail14push_coroutineIbEcvbEv(ptr noundef nonnull align 8 dereferenceable(8) %0) #2 comdat align 2 {
  %2 = alloca ptr, align 8
  store ptr %0, ptr %2, align 8
  %3 = load ptr, ptr %2, align 8
  %4 = getelementptr inbounds %"class.boost::coroutines2::detail::push_coroutine", ptr %3, i32 0, i32 0
  %5 = load ptr, ptr %4, align 8
  %6 = icmp ne ptr null, %5
  br i1 %6, label %7, label %11

7:                                                ; preds = %1
  %8 = getelementptr inbounds %"class.boost::coroutines2::detail::push_coroutine", ptr %3, i32 0, i32 0
  %9 = load ptr, ptr %8, align 8
  %10 = call noundef zeroext i1 @_ZNK5boost11coroutines26detail14push_coroutineIbE13control_block5validEv(ptr noundef nonnull align 8 dereferenceable(32) %9) #1
  br label %11

11:                                               ; preds = %7, %1
  %12 = phi i1 [ false, %1 ], [ %10, %7 ]
  ret i1 %12
}

; Function Attrs: mustprogress uwtable
define linkonce_odr noundef nonnull align 8 dereferenceable(8) ptr @_ZN5boost11coroutines26detail14push_coroutineIbEclEOb(ptr noundef nonnull align 8 dereferenceable(8) %0, ptr noundef nonnull align 1 dereferenceable(1) %1) #3 comdat align 2 {
  %3 = alloca ptr, align 8
  %4 = alloca ptr, align 8
  store ptr %0, ptr %3, align 8
  store ptr %1, ptr %4, align 8
  %5 = load ptr, ptr %3, align 8
  %6 = getelementptr inbounds %"class.boost::coroutines2::detail::push_coroutine", ptr %5, i32 0, i32 0
  %7 = load ptr, ptr %6, align 8
  %8 = load ptr, ptr %4, align 8
  call void @_ZN5boost11coroutines26detail14push_coroutineIbE13control_block6resumeEOb(ptr noundef nonnull align 8 dereferenceable(32) %7, ptr noundef nonnull align 1 dereferenceable(1) %8)
  ret ptr %5
}

; Function Attrs: mustprogress uwtable
define linkonce_odr void @_ZN3nix16CoroutineContextC2Ev(ptr noundef nonnull align 8 dereferenceable(16) %0) unnamed_addr #3 comdat align 2 {
  %2 = alloca ptr, align 8
  store ptr %0, ptr %2, align 8
  %3 = load ptr, ptr %2, align 8
  %4 = getelementptr inbounds %"class.nix::CoroutineContext", ptr %3, i32 0, i32 0
  %5 = load ptr, ptr @_ZN3nix19create_coro_gc_hookE, align 8
  call void %5(ptr dead_on_unwind writable sret(%"class.std::shared_ptr.34") align 8 %4)
  ret void
}

; Function Attrs: mustprogress nounwind uwtable
define linkonce_odr noundef zeroext i1 @_ZNK5boost11coroutines26detail14push_coroutineIbEntEv(ptr noundef nonnull align 8 dereferenceable(8) %0) #2 comdat align 2 {
  %2 = alloca ptr, align 8
  store ptr %0, ptr %2, align 8
  %3 = load ptr, ptr %2, align 8
  %4 = getelementptr inbounds %"class.boost::coroutines2::detail::push_coroutine", ptr %3, i32 0, i32 0
  %5 = load ptr, ptr %4, align 8
  %6 = icmp eq ptr null, %5
  br i1 %6, label %12, label %7

7:                                                ; preds = %1
  %8 = getelementptr inbounds %"class.boost::coroutines2::detail::push_coroutine", ptr %3, i32 0, i32 0
  %9 = load ptr, ptr %8, align 8
  %10 = call noundef zeroext i1 @_ZNK5boost11coroutines26detail14push_coroutineIbE13control_block5validEv(ptr noundef nonnull align 8 dereferenceable(32) %9) #1
  %11 = xor i1 %10, true
  br label %12

12:                                               ; preds = %7, %1
  %13 = phi i1 [ true, %1 ], [ %11, %7 ]
  ret i1 %13
}

; Function Attrs: mustprogress nounwind uwtable
define linkonce_odr noundef nonnull align 8 dereferenceable(8) ptr @_ZNRSt8optionalIN5boost11coroutines26detail14push_coroutineIbEEEdeEv(ptr noundef nonnull align 8 dereferenceable(16) %0) #2 comdat align 2 {
  %2 = alloca ptr, align 8
  store ptr %0, ptr %2, align 8
  %3 = load ptr, ptr %2, align 8
  %4 = call noundef nonnull align 8 dereferenceable(8) ptr @_ZNSt19_Optional_base_implIN5boost11coroutines26detail14push_coroutineIbEESt14_Optional_baseIS4_Lb0ELb0EEE6_M_getEv(ptr noundef nonnull align 1 dereferenceable(1) %3) #1
  ret ptr %4
}

; Function Attrs: mustprogress nounwind uwtable
define linkonce_odr noundef zeroext i1 @_ZNKSt8optionalIN5boost11coroutines26detail14push_coroutineIbEEEcvbEv(ptr noundef nonnull align 8 dereferenceable(16) %0) #2 comdat align 2 {
  %2 = alloca ptr, align 8
  store ptr %0, ptr %2, align 8
  %3 = load ptr, ptr %2, align 8
  %4 = call noundef zeroext i1 @_ZNKSt19_Optional_base_implIN5boost11coroutines26detail14push_coroutineIbEESt14_Optional_baseIS4_Lb0ELb0EEE13_M_is_engagedEv(ptr noundef nonnull align 1 dereferenceable(1) %3) #1
  ret i1 %4
}

; Function Attrs: mustprogress uwtable
define internal void @_ZZN3nix12sourceToSinkESt8functionIFvRNS_6SourceEEEEN12SourceToSink6finishEv(ptr noundef nonnull align 8 dereferenceable(72) %0) unnamed_addr #3 align 2 personality ptr @__gxx_personality_v0 {
  %2 = alloca ptr, align 8
  %3 = alloca %"class.nix::CoroutineContext", align 8
  %4 = alloca i8, align 1
  %5 = alloca ptr, align 8
  %6 = alloca i32, align 4
  store ptr %0, ptr %2, align 8
  %7 = load ptr, ptr %2, align 8
  %8 = getelementptr inbounds %struct.SourceToSink, ptr %7, i32 0, i32 2
  %9 = call noundef zeroext i1 @_ZNKSt8optionalIN5boost11coroutines26detail14push_coroutineIbEEEcvbEv(ptr noundef nonnull align 8 dereferenceable(16) %8) #1
  br i1 %9, label %11, label %10

10:                                               ; preds = %1
  br label %29

11:                                               ; preds = %1
  %12 = getelementptr inbounds %struct.SourceToSink, ptr %7, i32 0, i32 2
  %13 = call noundef nonnull align 8 dereferenceable(8) ptr @_ZNRSt8optionalIN5boost11coroutines26detail14push_coroutineIbEEEdeEv(ptr noundef nonnull align 8 dereferenceable(16) %12) #1
  %14 = call noundef zeroext i1 @_ZNK5boost11coroutines26detail14push_coroutineIbEntEv(ptr noundef nonnull align 8 dereferenceable(8) %13) #1
  br i1 %14, label %15, label %16

15:                                               ; preds = %11
  call void @abort() #24
  unreachable

16:                                               ; preds = %11
  call void @_ZN3nix16CoroutineContextC2Ev(ptr noundef nonnull align 8 dereferenceable(16) %3)
  %17 = getelementptr inbounds %struct.SourceToSink, ptr %7, i32 0, i32 2
  %18 = call noundef nonnull align 8 dereferenceable(8) ptr @_ZNRSt8optionalIN5boost11coroutines26detail14push_coroutineIbEEEdeEv(ptr noundef nonnull align 8 dereferenceable(16) %17) #1
  store i8 1, ptr %4, align 1
  %19 = invoke noundef nonnull align 8 dereferenceable(8) ptr @_ZN5boost11coroutines26detail14push_coroutineIbEclEOb(ptr noundef nonnull align 8 dereferenceable(8) %18, ptr noundef nonnull align 1 dereferenceable(1) %4)
          to label %20 unwind label %25

20:                                               ; preds = %16
  call void @_ZN3nix16CoroutineContextD2Ev(ptr noundef nonnull align 8 dereferenceable(16) %3) #1
  %21 = getelementptr inbounds %struct.SourceToSink, ptr %7, i32 0, i32 2
  %22 = call noundef nonnull align 8 dereferenceable(8) ptr @_ZNRSt8optionalIN5boost11coroutines26detail14push_coroutineIbEEEdeEv(ptr noundef nonnull align 8 dereferenceable(16) %21) #1
  %23 = call noundef zeroext i1 @_ZNK5boost11coroutines26detail14push_coroutineIbEcvbEv(ptr noundef nonnull align 8 dereferenceable(8) %22) #1
  br i1 %23, label %24, label %29

24:                                               ; preds = %20
  call void @abort() #24
  unreachable

25:                                               ; preds = %16
  %26 = landingpad { ptr, i32 }
          cleanup
  %27 = extractvalue { ptr, i32 } %26, 0
  store ptr %27, ptr %5, align 8
  %28 = extractvalue { ptr, i32 } %26, 1
  store i32 %28, ptr %6, align 4
  call void @_ZN3nix16CoroutineContextD2Ev(ptr noundef nonnull align 8 dereferenceable(16) %3) #1
  br label %30

29:                                               ; preds = %20, %10
  ret void

30:                                               ; preds = %25
  %31 = load ptr, ptr %5, align 8
  %32 = load i32, ptr %6, align 4
  %33 = insertvalue { ptr, i32 } poison, ptr %31, 0
  %34 = insertvalue { ptr, i32 } %33, i32 %32, 1
  resume { ptr, i32 } %34
}