; Function Attrs: mustprogress uwtable
define internal void @_ZZN3nix12sourceToSinkESt8functionIFvRNS_6SourceEEEEN12SourceToSink6finishEv(ptr nocapture noundef nonnull readonly align 8 dereferenceable(72) %0) unnamed_addr #2 align 2 personality ptr @__gxx_personality_v0 {
  %2 = alloca %"class.nix::CoroutineContext", align 8
  %3 = alloca i8, align 1
  %4 = getelementptr inbounds i8, ptr %0, i64 40
  %5 = getelementptr inbounds i8, ptr %0, i64 48
  %6 = load i8, ptr %5, align 8
  %7 = and i8 %6, 1
  %.not = icmp eq i8 %7, 0
  br i1 %.not, label %_ZNK5boost11coroutines26detail14push_coroutineIbEcvbEv.exit.thread, label %8

8:                                                ; preds = %1
  %9 = load ptr, ptr %4, align 8
  %10 = icmp eq ptr %9, null
  br i1 %10, label %_ZNK5boost11coroutines26detail14push_coroutineIbEntEv.exit.thread, label %_ZNK5boost11coroutines26detail14push_coroutineIbEntEv.exit

_ZNK5boost11coroutines26detail14push_coroutineIbEntEv.exit: ; preds = %8
  %11 = getelementptr inbounds i8, ptr %9, i64 16
  %12 = load i32, ptr %11, align 8
  %13 = and i32 %12, 2
  %.not2 = icmp eq i32 %13, 0
  br i1 %.not2, label %14, label %_ZNK5boost11coroutines26detail14push_coroutineIbEntEv.exit.thread

_ZNK5boost11coroutines26detail14push_coroutineIbEntEv.exit.thread: ; preds = %8, %_ZNK5boost11coroutines26detail14push_coroutineIbEntEv.exit
  tail call void @abort() #38
  unreachable

14:                                               ; preds = %_ZNK5boost11coroutines26detail14push_coroutineIbEntEv.exit
  %15 = load ptr, ptr @_ZN3nix19create_coro_gc_hookE, align 8
  call void %15(ptr dead_on_unwind nonnull writable sret(%"class.std::shared_ptr.34") align 8 %2)
  store i8 1, ptr %3, align 1
  %16 = load ptr, ptr %4, align 8
  invoke void @_ZN5boost11coroutines26detail14push_coroutineIbE13control_block6resumeEOb(ptr noundef nonnull align 8 dereferenceable(32) %16, ptr noundef nonnull align 1 dereferenceable(1) %3)
          to label %_ZN5boost11coroutines26detail14push_coroutineIbEclEOb.exit unwind label %59

_ZN5boost11coroutines26detail14push_coroutineIbEclEOb.exit: ; preds = %14
  %17 = getelementptr inbounds i8, ptr %2, i64 8
  %18 = load ptr, ptr %17, align 8
  %.not.i.i.i.i = icmp eq ptr %18, null
  br i1 %.not.i.i.i.i, label %_ZN3nix16CoroutineContextD2Ev.exit, label %19

19:                                               ; preds = %_ZN5boost11coroutines26detail14push_coroutineIbEclEOb.exit
  %20 = getelementptr inbounds i8, ptr %18, i64 8
  %21 = load atomic i64, ptr %20 acquire, align 8
  %22 = icmp eq i64 %21, 4294967297
  %23 = trunc i64 %21 to i32
  br i1 %22, label %24, label %29

24:                                               ; preds = %19
  store i32 0, ptr %20, align 8
  %25 = getelementptr inbounds i8, ptr %18, i64 12
  store i32 0, ptr %25, align 4
  %26 = load ptr, ptr %18, align 8
  %27 = getelementptr inbounds i8, ptr %26, i64 16
  %28 = load ptr, ptr %27, align 8
  call void %28(ptr noundef nonnull align 8 dereferenceable(16) %18) #34
  br label %_ZNSt16_Sp_counted_baseILN9__gnu_cxx12_Lock_policyE2EE24_M_release_last_use_coldEv.exit.sink.split.i.i.i.i.i

29:                                               ; preds = %19
  %30 = load i8, ptr @__libc_single_threaded, align 1
  %.not.i.i.i.i.i = icmp eq i8 %30, 0
  br i1 %.not.i.i.i.i.i, label %33, label %31

31:                                               ; preds = %29
  %32 = add nsw i32 %23, -1
  store i32 %32, ptr %20, align 4
  br label %35

33:                                               ; preds = %29
  %34 = atomicrmw volatile add ptr %20, i32 -1 acq_rel, align 4
  br label %35

35:                                               ; preds = %33, %31
  %.0.i.i.i.i.i = phi i32 [ %23, %31 ], [ %34, %33 ]
  %36 = icmp eq i32 %.0.i.i.i.i.i, 1
  br i1 %36, label %37, label %_ZN3nix16CoroutineContextD2Ev.exit

37:                                               ; preds = %35
  %38 = load ptr, ptr %18, align 8
  %39 = getelementptr inbounds i8, ptr %38, i64 16
  %40 = load ptr, ptr %39, align 8
  call void %40(ptr noundef nonnull align 8 dereferenceable(16) %18) #34
  %41 = getelementptr inbounds i8, ptr %18, i64 12
  %42 = load i8, ptr @__libc_single_threaded, align 1
  %.not.i.i.i.i.i.i.i = icmp eq i8 %42, 0
  br i1 %.not.i.i.i.i.i.i.i, label %46, label %43

43:                                               ; preds = %37
  %44 = load i32, ptr %41, align 4
  %45 = add nsw i32 %44, -1
  store i32 %45, ptr %41, align 4
  br label %48

46:                                               ; preds = %37
  %47 = atomicrmw volatile add ptr %41, i32 -1 acq_rel, align 4
  br label %48

48:                                               ; preds = %46, %43
  %.0.i.i.i.i.i.i.i = phi i32 [ %44, %43 ], [ %47, %46 ]
  %49 = icmp eq i32 %.0.i.i.i.i.i.i.i, 1
  br i1 %49, label %_ZNSt16_Sp_counted_baseILN9__gnu_cxx12_Lock_policyE2EE24_M_release_last_use_coldEv.exit.sink.split.i.i.i.i.i, label %_ZN3nix16CoroutineContextD2Ev.exit

_ZNSt16_Sp_counted_baseILN9__gnu_cxx12_Lock_policyE2EE24_M_release_last_use_coldEv.exit.sink.split.i.i.i.i.i: ; preds = %48, %24
  %50 = load ptr, ptr %18, align 8
  %51 = getelementptr inbounds i8, ptr %50, i64 24
  %52 = load ptr, ptr %51, align 8
  call void %52(ptr noundef nonnull align 8 dereferenceable(16) %18) #34
  br label %_ZN3nix16CoroutineContextD2Ev.exit

_ZN3nix16CoroutineContextD2Ev.exit:               ; preds = %_ZN5boost11coroutines26detail14push_coroutineIbEclEOb.exit, %35, %48, %_ZNSt16_Sp_counted_baseILN9__gnu_cxx12_Lock_policyE2EE24_M_release_last_use_coldEv.exit.sink.split.i.i.i.i.i
  %53 = load ptr, ptr %4, align 8
  %.not.i = icmp eq ptr %53, null
  br i1 %.not.i, label %_ZNK5boost11coroutines26detail14push_coroutineIbEcvbEv.exit.thread, label %_ZNK5boost11coroutines26detail14push_coroutineIbEcvbEv.exit

_ZNK5boost11coroutines26detail14push_coroutineIbEcvbEv.exit: ; preds = %_ZN3nix16CoroutineContextD2Ev.exit
  %54 = getelementptr inbounds i8, ptr %53, i64 16
  %55 = load i32, ptr %54, align 8
  %56 = and i32 %55, 2
  %57 = icmp eq i32 %56, 0
  br i1 %57, label %58, label %_ZNK5boost11coroutines26detail14push_coroutineIbEcvbEv.exit.thread

58:                                               ; preds = %_ZNK5boost11coroutines26detail14push_coroutineIbEcvbEv.exit
  call void @abort() #38
  unreachable

59:                                               ; preds = %14
  %60 = landingpad { ptr, i32 }
          cleanup
  call void @_ZN3nix16CoroutineContextD2Ev(ptr noundef nonnull align 8 dereferenceable(16) %2) #34
  resume { ptr, i32 } %60

_ZNK5boost11coroutines26detail14push_coroutineIbEcvbEv.exit.thread: ; preds = %_ZN3nix16CoroutineContextD2Ev.exit, %1, %_ZNK5boost11coroutines26detail14push_coroutineIbEcvbEv.exit
  ret void
}